; Function Attrs: nounwind uwtable
define internal void @ResOwnerReleaseFile(i64 noundef %0) #0 {
  %2 = trunc i64 %0 to i32
  %3 = load ptr, ptr @VfdCache, align 8
  %sext = shl i64 %0, 32
  %4 = ashr exact i64 %sext, 32
  %5 = getelementptr inbounds %struct.vfd, ptr %3, i64 %4, i32 2
  store ptr null, ptr %5, align 8
  tail call void @FileClose(i32 noundef %2)
  ret void
}